#include <math.h>
#include <stdio.h>
#include <stdlib.h>
#include <string.h>

int main()
{
	char s[1000],word[100][20];
	int i,j,k,len;
	gets(s);
	len=strlen(s);
	j=0;
	k=0;
	for(i=0;i<len;i++){
		if(s[i]!=' '){
			word[j][k]=s[i];
			k++;
		}
		else if((s[i]==' ')&&(s[i-1]!=' ')){
			word[j][k]='\0';
			j++;
			k=0;
		}
		else{
			continue;
		}
	}
	word[j][k]='\0';
	for(i=0;i<j;i++){
		printf("%s ",word[i]);
	}
	printf("%s",word[i]);
	return 0;
}

