; ModuleID = 'source-C-CXX/61/149.c'
source_filename = "source-C-CXX/61/149.c"
target datalayout = "e-m:e-p270:32:32-p271:32:32-p272:64:64-i64:64-f80:128-n8:16:32:64-S128"
target triple = "x86_64-pc-linux-gnu"

@.str = private unnamed_addr constant [4 x i8] c"%s \00", align 1
@.str.1 = private unnamed_addr constant [3 x i8] c"%s\00", align 1

; Function Attrs: nounwind sspstrong uwtable
define dso_local i32 @main() local_unnamed_addr #0 {
  %1 = alloca [1000 x i8], align 16
  %2 = alloca [100 x [20 x i8]], align 16
  %3 = getelementptr inbounds [1000 x i8], [1000 x i8]* %1, i64 0, i64 0
  call void @llvm.lifetime.start.p0i8(i64 1000, i8* nonnull %3) #5
  %4 = getelementptr inbounds [100 x [20 x i8]], [100 x [20 x i8]]* %2, i64 0, i64 0, i64 0
  call void @llvm.lifetime.start.p0i8(i64 2000, i8* nonnull %4) #5
  %5 = call i32 (i8*, ...) bitcast (i32 (...)* @gets to i32 (i8*, ...)*)(i8* nonnull %3) #5
  %6 = call i64 @strlen(i8* noundef nonnull %3) #6
  %7 = trunc i64 %6 to i32
  %8 = icmp sgt i32 %7, 0
  br i1 %8, label %11, label %9

9:                                                ; preds = %0
  %10 = getelementptr inbounds [100 x [20 x i8]], [100 x [20 x i8]]* %2, i64 0, i64 0, i64 0
  store i8 0, i8* %10, align 16, !tbaa !5
  br label %53

11:                                               ; preds = %0
  %12 = and i64 %6, 4294967295
  br label %13

13:                                               ; preds = %11, %35
  %14 = phi i64 [ 0, %11 ], [ %38, %35 ]
  %15 = phi i32 [ 0, %11 ], [ %37, %35 ]
  %16 = phi i32 [ 0, %11 ], [ %36, %35 ]
  %17 = getelementptr inbounds [1000 x i8], [1000 x i8]* %1, i64 0, i64 %14
  %18 = load i8, i8* %17, align 1, !tbaa !5
  %19 = icmp eq i8 %18, 32
  br i1 %19, label %25, label %20

20:                                               ; preds = %13
  %21 = sext i32 %16 to i64
  %22 = sext i32 %15 to i64
  %23 = getelementptr inbounds [100 x [20 x i8]], [100 x [20 x i8]]* %2, i64 0, i64 %21, i64 %22
  store i8 %18, i8* %23, align 1, !tbaa !5
  %24 = add nsw i32 %15, 1
  br label %35

25:                                               ; preds = %13
  %26 = add nsw i64 %14, -1
  %27 = getelementptr inbounds [1000 x i8], [1000 x i8]* %1, i64 0, i64 %26
  %28 = load i8, i8* %27, align 1, !tbaa !5
  %29 = icmp eq i8 %28, 32
  br i1 %29, label %35, label %30

30:                                               ; preds = %25
  %31 = sext i32 %16 to i64
  %32 = sext i32 %15 to i64
  %33 = getelementptr inbounds [100 x [20 x i8]], [100 x [20 x i8]]* %2, i64 0, i64 %31, i64 %32
  store i8 0, i8* %33, align 1, !tbaa !5
  %34 = add nsw i32 %16, 1
  br label %35

35:                                               ; preds = %20, %30, %25
  %36 = phi i32 [ %16, %20 ], [ %34, %30 ], [ %16, %25 ]
  %37 = phi i32 [ %24, %20 ], [ 0, %30 ], [ %15, %25 ]
  %38 = add nuw nsw i64 %14, 1
  %39 = icmp eq i64 %38, %12
  br i1 %39, label %40, label %13, !llvm.loop !8

40:                                               ; preds = %35
  %41 = sext i32 %36 to i64
  %42 = sext i32 %37 to i64
  %43 = getelementptr inbounds [100 x [20 x i8]], [100 x [20 x i8]]* %2, i64 0, i64 %41, i64 %42
  store i8 0, i8* %43, align 1, !tbaa !5
  %44 = icmp sgt i32 %36, 0
  br i1 %44, label %45, label %53

45:                                               ; preds = %40
  %46 = zext i32 %36 to i64
  br label %47

47:                                               ; preds = %45, %47
  %48 = phi i64 [ 0, %45 ], [ %51, %47 ]
  %49 = getelementptr inbounds [100 x [20 x i8]], [100 x [20 x i8]]* %2, i64 0, i64 %48, i64 0
  %50 = call i32 (i8*, ...) @printf(i8* nonnull dereferenceable(1) getelementptr inbounds ([4 x i8], [4 x i8]* @.str, i64 0, i64 0), i8* nonnull %49)
  %51 = add nuw nsw i64 %48, 1
  %52 = icmp eq i64 %51, %46
  br i1 %52, label %53, label %47, !llvm.loop !10

53:                                               ; preds = %47, %40, %9
  %54 = phi i32 [ 0, %9 ], [ 0, %40 ], [ %36, %47 ]
  %55 = zext i32 %54 to i64
  %56 = getelementptr inbounds [100 x [20 x i8]], [100 x [20 x i8]]* %2, i64 0, i64 %55, i64 0
  %57 = call i32 (i8*, ...) @printf(i8* nonnull dereferenceable(1) getelementptr inbounds ([3 x i8], [3 x i8]* @.str.1, i64 0, i64 0), i8* nonnull %56)
  call void @llvm.lifetime.end.p0i8(i64 2000, i8* nonnull %4) #5
  call void @llvm.lifetime.end.p0i8(i64 1000, i8* nonnull %3) #5
  ret i32 0
}

; Function Attrs: argmemonly mustprogress nofree nosync nounwind willreturn
declare void @llvm.lifetime.start.p0i8(i64 immarg, i8* nocapture) #1

declare i32 @gets(...) local_unnamed_addr #2

; Function Attrs: argmemonly mustprogress nofree nounwind readonly willreturn
declare i64 @strlen(i8* nocapture) local_unnamed_addr #3

; Function Attrs: nofree nounwind
declare noundef i32 @printf(i8* nocapture noundef readonly, ...) local_unnamed_addr #4

; Function Attrs: argmemonly mustprogress nofree nosync nounwind willreturn
declare void @llvm.lifetime.end.p0i8(i64 immarg, i8* nocapture) #1


!llvm.module.flags = !{!0, !1, !2, !3}
!llvm.ident = !{!4}

!0 = !{i32 1, !"wchar_size", i32 4}
!1 = !{i32 7, !"PIC Level", i32 2}
!2 = !{i32 7, !"PIE Level", i32 2}
!3 = !{i32 7, !"uwtable", i32 1}
!4 = !{!"clang version 13.0.0"}
!5 = !{!6, !6, i64 0}
!6 = !{!"omnipotent char", !7, i64 0}
!7 = !{!"Simple C/C++ TBAA"}
!8 = distinct !{!8, !9}
!9 = !{!"llvm.loop.mustprogress"}
!10 = distinct !{!10, !9}
